
There are no discarded input sections

Memory Configuration

Name             Origin             Length             Attributes
*default*        0x0000000000000000 0xffffffffffffffff

Linker script and memory map

                0x0000000040000000                . = 0x40000000

.text           0x0000000040000000     0x16c0
 *(.text.boot)
 .text.boot     0x0000000040000000       0x38 bin/obj/__boot/boot.o
                0x0000000040000000                _start
 *(.text*)
 .text          0x0000000040000038        0xc bin/obj/__lib/kernel_utils.o
                0x0000000040000038                _currentEL
 *fill*         0x0000000040000044        0xc 
 .text          0x0000000040000050      0x250 bin/obj/__lib/memcpy/memcpy.o
                0x0000000040000050                _memcpy
                0x0000000040000160                _memcpy64
                0x0000000040000190                _memcpy32
                0x00000000400001c0                _memcpy16
                0x00000000400001f0                _memcpy8
                0x0000000040000220                _memcpy4
                0x0000000040000250                _memcpy2
                0x0000000040000280                _memcpy1
 .text          0x00000000400002a0       0x58 bin/obj/__boot/clean_bss.o
                0x00000000400002a0                _clean_bss
 .text          0x00000000400002f8        0x0 bin/obj/__boot/boot.o
 .text          0x00000000400002f8      0x27c bin/obj/kernel/panic.o
                0x00000000400002f8                init_panic
                0x00000000400003ac                panic
                0x00000000400004c0                set_panic
                0x0000000040000530                set_and_throw_panic
 .text          0x0000000040000574        0x0 bin/obj/kernel/malloc/buddy_allocator.o
 .text          0x0000000040000574       0x34 bin/obj/kernel/kernel_entry.o
                0x0000000040000594                kernel_entry
 .text          0x00000000400005a8      0x7d4 bin/obj/lib/string.o
                0x00000000400005a8                strcopy
                0x000000004000063c                uint8_to_ascii_char
                0x00000000400006ac                stdint_to_ascii
 .text          0x0000000040000d7c      0x1d0 bin/obj/lib/memcpy/memcpy.o
                0x0000000040000d7c                memcpy64_aligned
                0x0000000040000eb8                memcpy64
 .text          0x0000000040000f4c      0x768 bin/obj/drivers/uart/uart.o
                0x0000000040001418                UART_putc
                0x0000000040001480                UART_puts
                0x00000000400014d0                UART_reset
                0x0000000040001568                UART_init
                0x00000000400016c0                . = ALIGN (0x10)
 *fill*         0x00000000400016b4        0xc 

.iplt           0x00000000400016c0        0x0
 .iplt          0x00000000400016c0        0x0 bin/obj/__boot/clean_bss.o

.rodata         0x00000000400016c0      0x2e0
 *(.rodata*)
 .rodata        0x00000000400016c0       0xc3 bin/obj/kernel/panic.o
 *fill*         0x0000000040001783        0x5 
 .rodata        0x0000000040001788      0x115 bin/obj/lib/string.o
 *fill*         0x000000004000189d        0x3 
 .rodata        0x00000000400018a0       0xd7 bin/obj/lib/memcpy/memcpy.o
 *fill*         0x0000000040001977        0x1 
 .rodata        0x0000000040001978       0x20 bin/obj/drivers/uart/uart.o
                0x00000000400019a0                . = ALIGN (0x10)
 *fill*         0x0000000040001998        0x8 

.rela.dyn       0x00000000400019a0        0x0
 .rela.iplt     0x00000000400019a0        0x0 bin/obj/__boot/clean_bss.o
 .rela.text     0x00000000400019a0        0x0 bin/obj/__boot/clean_bss.o
 .rela.text.boot
                0x00000000400019a0        0x0 bin/obj/__boot/clean_bss.o

.data           0x00000000400019a0        0x0
 *(.data*)
 .data          0x00000000400019a0        0x0 bin/obj/__lib/kernel_utils.o
 .data          0x00000000400019a0        0x0 bin/obj/__lib/memcpy/memcpy.o
 .data          0x00000000400019a0        0x0 bin/obj/__boot/clean_bss.o
 .data          0x00000000400019a0        0x0 bin/obj/__boot/boot.o
 .data          0x00000000400019a0        0x0 bin/obj/kernel/panic.o
 .data          0x00000000400019a0        0x0 bin/obj/kernel/malloc/buddy_allocator.o
 .data          0x00000000400019a0        0x0 bin/obj/kernel/kernel_entry.o
 .data          0x00000000400019a0        0x0 bin/obj/lib/string.o
 .data          0x00000000400019a0        0x0 bin/obj/lib/memcpy/memcpy.o
 .data          0x00000000400019a0        0x0 bin/obj/drivers/uart/uart.o
                0x00000000400019a0                . = ALIGN (0x10)

.igot.plt       0x00000000400019a0        0x0
 .igot.plt      0x00000000400019a0        0x0 bin/obj/__boot/clean_bss.o

.bss            0x00000000400019c0     0x1440
                0x00000000400019c0                __bss_start = .
 *(.bss*)
 .bss           0x00000000400019c0        0x0 bin/obj/__lib/kernel_utils.o
 .bss           0x00000000400019c0        0x0 bin/obj/__lib/memcpy/memcpy.o
 .bss           0x00000000400019c0        0x0 bin/obj/__boot/clean_bss.o
 .bss           0x00000000400019c0        0x0 bin/obj/__boot/boot.o
 .bss           0x00000000400019c0     0x1428 bin/obj/kernel/panic.o
                0x00000000400019c0                PANIC_MESSAGE_LEN
                0x00000000400019c8                PANIC_FILE_LEN
                0x00000000400019d0                PANIC_MESSAGE_PTR
                0x00000000400019d8                PANIC_FILE_PTR
                0x00000000400019e0                PANIC_LINE
                0x00000000400019e4                PANIC_COL
 .bss           0x0000000040002de8        0x0 bin/obj/kernel/malloc/buddy_allocator.o
 .bss           0x0000000040002de8        0x0 bin/obj/kernel/kernel_entry.o
 .bss           0x0000000040002de8        0x0 bin/obj/lib/string.o
 .bss           0x0000000040002de8        0x0 bin/obj/lib/memcpy/memcpy.o
 .bss           0x0000000040002de8        0x0 bin/obj/drivers/uart/uart.o
 *(COMMON)
                0x0000000040002e00                . = ALIGN (0x40)
 *fill*         0x0000000040002de8       0x18 
                0x0000000040002e00                __bss_end = .

.stacks         0x0000000040003000   0xa00000
                0x0000000040003000                . = ALIGN (0x10)
                0x0000000040003000                __stack_el1_bottom = .
                0x0000000040503000                . = (. + 0x500000)
 *fill*         0x0000000040003000   0x500000 
                0x0000000040503000                __stack_el1_top = .
                0x0000000040503000                . = ALIGN (0x10)
                0x0000000040503000                __stack_el2_bottom = .
                0x0000000040a03000                . = (. + 0x500000)
 *fill*         0x0000000040503000   0x500000 
                0x0000000040a03000                __stack_el2_top = .
LOAD bin/obj/__lib/kernel_utils.o
LOAD bin/obj/__lib/memcpy/memcpy.o
LOAD bin/obj/__boot/clean_bss.o
LOAD bin/obj/__boot/boot.o
LOAD bin/obj/kernel/panic.o
LOAD bin/obj/kernel/malloc/buddy_allocator.o
LOAD bin/obj/kernel/kernel_entry.o
LOAD bin/obj/lib/string.o
LOAD bin/obj/lib/memcpy/memcpy.o
LOAD bin/obj/drivers/uart/uart.o
LOAD bin/obj/rslib.a
OUTPUT(bin/kernel.elf elf64-littleaarch64)
LOAD linker stubs

.comment        0x0000000000000000       0x45
 .comment       0x0000000000000000       0x45 bin/obj/kernel/panic.o
                                         0x46 (size before relaxing)
 .comment       0x0000000000000045       0x46 bin/obj/kernel/malloc/buddy_allocator.o
 .comment       0x0000000000000045       0x46 bin/obj/kernel/kernel_entry.o
 .comment       0x0000000000000045       0x46 bin/obj/lib/string.o
 .comment       0x0000000000000045       0x46 bin/obj/lib/memcpy/memcpy.o
 .comment       0x0000000000000045       0x46 bin/obj/drivers/uart/uart.o
